; Function Attrs: nounwind uwtable
define void @Gia_GlaAddTimeFrame(ptr noundef captures(none) %0, i32 noundef %1) local_unnamed_addr #0 {
  %3 = getelementptr inbounds nuw i8, ptr %0, i64 24
  %4 = load ptr, ptr %3, align 8, !tbaa !12
  %5 = getelementptr i8, ptr %4, i64 4
  %.val13 = load i32, ptr %5, align 4, !tbaa !3
  %6 = icmp sgt i32 %.val13, 0
  br i1 %6, label %.lr.ph, label %.critedge

.lr.ph:                                           ; preds = %2
  %7 = getelementptr i8, ptr %0, i64 40
  %8 = getelementptr inbounds nuw i8, ptr %0, i64 96
  br label %Gla_ManObj.exit

Gla_ManObj.exit:                                  ; preds = %.lr.ph, %Gla_ManObj.exit
  %indvars.iv = phi i64 [ 0, %.lr.ph ], [ %indvars.iv.next, %Gla_ManObj.exit ]
  %9 = phi ptr [ %4, %.lr.ph ], [ %22, %Gla_ManObj.exit ]
  %10 = getelementptr i8, ptr %9, i64 8
  %.val11 = load ptr, ptr %10, align 8, !tbaa !11
  %11 = getelementptr inbounds nuw i32, ptr %.val11, i64 %indvars.iv
  %12 = load i32, ptr %11, align 4, !tbaa !22
  %.not.i = icmp eq i32 %12, 0
  %.val12.pre = load ptr, ptr %7, align 8, !tbaa !23
  %13 = sext i32 %12 to i64
  %14 = getelementptr inbounds %struct.Gla_Obj_t_, ptr %.val12.pre, i64 %13
  %15 = ptrtoint ptr %14 to i64
  %16 = select i1 %.not.i, i64 0, i64 %15
  %17 = ptrtoint ptr %.val12.pre to i64
  %18 = sub i64 %16, %17
  %19 = sdiv exact i64 %18, 40
  %20 = trunc i64 %19 to i32
  %21 = load ptr, ptr %8, align 8, !tbaa !145
  tail call void @Gla_ManAddClauses(ptr noundef nonnull %0, i32 noundef %20, i32 noundef %1, ptr noundef %21)
  %indvars.iv.next = add nuw nsw i64 %indvars.iv, 1
  %22 = load ptr, ptr %3, align 8, !tbaa !12
  %23 = getelementptr i8, ptr %22, i64 4
  %.val = load i32, ptr %23, align 4, !tbaa !3
  %24 = sext i32 %.val to i64
  %25 = icmp slt i64 %indvars.iv.next, %24
  br i1 %25, label %Gla_ManObj.exit, label %.critedge, !llvm.loop !211

.critedge:                                        ; preds = %Gla_ManObj.exit, %2
  %26 = getelementptr inbounds nuw i8, ptr %0, i64 88
  %27 = load ptr, ptr %26, align 8, !tbaa !53
  %28 = tail call i32 @sat_solver2_simplify(ptr noundef %27) #29
  ret void
}